; ModuleID = 'source-C-CXX/22/499.cpp'
source_filename = "source-C-CXX/22/499.cpp"
target datalayout = "e-m:e-p270:32:32-p271:32:32-p272:64:64-i64:64-f80:128-n8:16:32:64-S128"
target triple = "x86_64-pc-linux-gnu"

%"class.std::ios_base::Init" = type { i8 }
%"class.std::basic_ostream" = type { i32 (...)**, %"class.std::basic_ios" }
%"class.std::basic_ios" = type { %"class.std::ios_base", %"class.std::basic_ostream"*, i8, i8, %"class.std::basic_streambuf"*, %"class.std::ctype"*, %"class.std::num_put"*, %"class.std::num_get"* }
%"class.std::ios_base" = type { i32 (...)**, i64, i64, i32, i32, i32, %"struct.std::ios_base::_Callback_list"*, %"struct.std::ios_base::_Words", [8 x %"struct.std::ios_base::_Words"], i32, %"struct.std::ios_base::_Words"*, %"class.std::locale" }
%"struct.std::ios_base::_Callback_list" = type { %"struct.std::ios_base::_Callback_list"*, void (i32, %"class.std::ios_base"*, i32)*, i32, i32 }
%"struct.std::ios_base::_Words" = type { i8*, i64 }
%"class.std::locale" = type { %"class.std::locale::_Impl"* }
%"class.std::locale::_Impl" = type { i32, %"class.std::locale::facet"**, i64, %"class.std::locale::facet"**, i8** }
%"class.std::locale::facet" = type <{ i32 (...)**, i32, [4 x i8] }>
%"class.std::basic_streambuf" = type { i32 (...)**, i8*, i8*, i8*, i8*, i8*, i8*, %"class.std::locale" }
%"class.std::ctype" = type <{ %"class.std::locale::facet.base", [4 x i8], %struct.__locale_struct*, i8, [7 x i8], i32*, i32*, i16*, i8, [256 x i8], [256 x i8], i8, [6 x i8] }>
%"class.std::locale::facet.base" = type <{ i32 (...)**, i32 }>
%struct.__locale_struct = type { [13 x %struct.__locale_data*], i16*, i32*, i32*, [13 x i8*] }
%struct.__locale_data = type opaque
%"class.std::num_put" = type { %"class.std::locale::facet.base", [4 x i8] }
%"class.std::num_get" = type { %"class.std::locale::facet.base", [4 x i8] }

@_ZStL8__ioinit = internal global %"class.std::ios_base::Init" zeroinitializer, align 1
@__dso_handle = external hidden global i8
@.str = private unnamed_addr constant [3 x i8] c"%c\00", align 1
@_ZSt4cout = external global %"class.std::basic_ostream", align 8
@.str.1 = private unnamed_addr constant [2 x i8] c" \00", align 1
@llvm.global_ctors = appending global [1 x { i32, void ()*, i8* }] [{ i32, void ()*, i8* } { i32 65535, void ()* @_GLOBAL__sub_I_499.cpp, i8* null }]

declare void @_ZNSt8ios_base4InitC1Ev(%"class.std::ios_base::Init"* nonnull align 1 dereferenceable(1)) unnamed_addr #0

; Function Attrs: nounwind
declare void @_ZNSt8ios_base4InitD1Ev(%"class.std::ios_base::Init"* nonnull align 1 dereferenceable(1)) unnamed_addr #1

; Function Attrs: nofree nounwind
declare i32 @__cxa_atexit(void (i8*)*, i8*, i8*) local_unnamed_addr #2

; Function Attrs: mustprogress norecurse sspstrong uwtable
define dso_local i32 @main() local_unnamed_addr #3 {
  %1 = alloca i8, align 1
  %2 = alloca i8, align 1
  %3 = alloca [100 x i8], align 16
  %4 = alloca [100 x [100 x i8]], align 16
  %5 = alloca i8, align 1
  %6 = alloca [100 x i32], align 16
  %7 = getelementptr inbounds [100 x i8], [100 x i8]* %3, i64 0, i64 0
  call void @llvm.lifetime.start.p0i8(i64 100, i8* nonnull %7) #7
  %8 = getelementptr inbounds [100 x [100 x i8]], [100 x [100 x i8]]* %4, i64 0, i64 0, i64 0
  call void @llvm.lifetime.start.p0i8(i64 10000, i8* nonnull %8) #7
  call void @llvm.lifetime.start.p0i8(i64 1, i8* nonnull %5) #7
  %9 = bitcast [100 x i32]* %6 to i8*
  call void @llvm.lifetime.start.p0i8(i64 400, i8* nonnull %9) #7
  %10 = call i32 (i8*, ...) @__isoc99_scanf(i8* getelementptr inbounds ([3 x i8], [3 x i8]* @.str, i64 0, i64 0), i8* nonnull %5)
  %11 = icmp eq i32 %10, 0
  br i1 %11, label %50, label %12

12:                                               ; preds = %0, %17
  %13 = phi i64 [ %19, %17 ], [ 0, %0 ]
  %14 = phi i32 [ %20, %17 ], [ 0, %0 ]
  %15 = load i8, i8* %5, align 1, !tbaa !5
  %16 = icmp eq i8 %15, 10
  br i1 %16, label %23, label %17

17:                                               ; preds = %12
  %18 = getelementptr inbounds [100 x i8], [100 x i8]* %3, i64 0, i64 %13
  store i8 %15, i8* %18, align 1, !tbaa !5
  %19 = add nuw i64 %13, 1
  %20 = add nuw nsw i32 %14, 1
  %21 = call i32 (i8*, ...) @__isoc99_scanf(i8* getelementptr inbounds ([3 x i8], [3 x i8]* @.str, i64 0, i64 0), i8* nonnull %5)
  %22 = icmp eq i32 %21, 0
  br i1 %22, label %26, label %12

23:                                               ; preds = %12
  %24 = trunc i64 %13 to i32
  %25 = icmp eq i32 %24, 0
  br i1 %25, label %50, label %26

26:                                               ; preds = %17, %23
  %27 = phi i32 [ %24, %23 ], [ %20, %17 ]
  %28 = zext i32 %27 to i64
  br label %29

29:                                               ; preds = %26, %45
  %30 = phi i64 [ 0, %26 ], [ %48, %45 ]
  %31 = phi i32 [ 0, %26 ], [ %47, %45 ]
  %32 = phi i32 [ 0, %26 ], [ %46, %45 ]
  %33 = getelementptr inbounds [100 x i8], [100 x i8]* %3, i64 0, i64 %30
  %34 = load i8, i8* %33, align 1, !tbaa !5
  %35 = icmp eq i8 %34, 32
  br i1 %35, label %41, label %36

36:                                               ; preds = %29
  %37 = sext i32 %31 to i64
  %38 = sext i32 %32 to i64
  %39 = getelementptr inbounds [100 x [100 x i8]], [100 x [100 x i8]]* %4, i64 0, i64 %37, i64 %38
  store i8 %34, i8* %39, align 1, !tbaa !5
  %40 = add nsw i32 %32, 1
  br label %45

41:                                               ; preds = %29
  %42 = add nsw i32 %31, 1
  %43 = sext i32 %31 to i64
  %44 = getelementptr inbounds [100 x i32], [100 x i32]* %6, i64 0, i64 %43
  store i32 %32, i32* %44, align 4, !tbaa !8
  br label %45

45:                                               ; preds = %36, %41
  %46 = phi i32 [ 0, %41 ], [ %40, %36 ]
  %47 = phi i32 [ %42, %41 ], [ %31, %36 ]
  %48 = add nuw nsw i64 %30, 1
  %49 = icmp eq i64 %48, %28
  br i1 %49, label %52, label %29, !llvm.loop !10

50:                                               ; preds = %23, %0
  %51 = getelementptr inbounds [100 x i32], [100 x i32]* %6, i64 0, i64 0
  store i32 0, i32* %51, align 16, !tbaa !8
  br label %62

52:                                               ; preds = %45
  %53 = sext i32 %47 to i64
  %54 = getelementptr inbounds [100 x i32], [100 x i32]* %6, i64 0, i64 %53
  store i32 %46, i32* %54, align 4, !tbaa !8
  %55 = icmp sgt i32 %47, 0
  br i1 %55, label %56, label %62

56:                                               ; preds = %52, %79
  %57 = phi i32 [ %81, %79 ], [ %46, %52 ]
  %58 = phi i64 [ %77, %79 ], [ %53, %52 ]
  %59 = icmp sgt i32 %57, 0
  br i1 %59, label %60, label %75

60:                                               ; preds = %56
  %61 = zext i32 %57 to i64
  br label %68

62:                                               ; preds = %75, %50, %52
  %63 = getelementptr inbounds [100 x i32], [100 x i32]* %6, i64 0, i64 0
  %64 = load i32, i32* %63, align 16, !tbaa !8
  %65 = icmp sgt i32 %64, 0
  br i1 %65, label %66, label %89

66:                                               ; preds = %62
  %67 = zext i32 %64 to i64
  br label %82

68:                                               ; preds = %60, %68
  %69 = phi i64 [ 0, %60 ], [ %73, %68 ]
  %70 = getelementptr inbounds [100 x [100 x i8]], [100 x [100 x i8]]* %4, i64 0, i64 %58, i64 %69
  %71 = load i8, i8* %70, align 1, !tbaa !5
  call void @llvm.lifetime.start.p0i8(i64 1, i8* nonnull %2)
  store i8 %71, i8* %2, align 1, !tbaa !5
  %72 = call nonnull align 8 dereferenceable(8) %"class.std::basic_ostream"* @_ZSt16__ostream_insertIcSt11char_traitsIcEERSt13basic_ostreamIT_T0_ES6_PKS3_l(%"class.std::basic_ostream"* nonnull align 8 dereferenceable(8) @_ZSt4cout, i8* nonnull %2, i64 1)
  call void @llvm.lifetime.end.p0i8(i64 1, i8* nonnull %2)
  %73 = add nuw nsw i64 %69, 1
  %74 = icmp eq i64 %73, %61
  br i1 %74, label %75, label %68, !llvm.loop !12

75:                                               ; preds = %68, %56
  %76 = call nonnull align 8 dereferenceable(8) %"class.std::basic_ostream"* @_ZSt16__ostream_insertIcSt11char_traitsIcEERSt13basic_ostreamIT_T0_ES6_PKS3_l(%"class.std::basic_ostream"* nonnull align 8 dereferenceable(8) @_ZSt4cout, i8* nonnull getelementptr inbounds ([2 x i8], [2 x i8]* @.str.1, i64 0, i64 0), i64 1)
  %77 = add nsw i64 %58, -1
  %78 = icmp sgt i64 %58, 1
  br i1 %78, label %79, label %62, !llvm.loop !13

79:                                               ; preds = %75
  %80 = getelementptr inbounds [100 x i32], [100 x i32]* %6, i64 0, i64 %77
  %81 = load i32, i32* %80, align 4, !tbaa !8
  br label %56

82:                                               ; preds = %66, %82
  %83 = phi i64 [ 0, %66 ], [ %87, %82 ]
  %84 = getelementptr inbounds [100 x [100 x i8]], [100 x [100 x i8]]* %4, i64 0, i64 0, i64 %83
  %85 = load i8, i8* %84, align 1, !tbaa !5
  call void @llvm.lifetime.start.p0i8(i64 1, i8* nonnull %1)
  store i8 %85, i8* %1, align 1, !tbaa !5
  %86 = call nonnull align 8 dereferenceable(8) %"class.std::basic_ostream"* @_ZSt16__ostream_insertIcSt11char_traitsIcEERSt13basic_ostreamIT_T0_ES6_PKS3_l(%"class.std::basic_ostream"* nonnull align 8 dereferenceable(8) @_ZSt4cout, i8* nonnull %1, i64 1)
  call void @llvm.lifetime.end.p0i8(i64 1, i8* nonnull %1)
  %87 = add nuw nsw i64 %83, 1
  %88 = icmp eq i64 %87, %67
  br i1 %88, label %89, label %82, !llvm.loop !14

89:                                               ; preds = %82, %62
  call void @llvm.lifetime.end.p0i8(i64 400, i8* nonnull %9) #7
  call void @llvm.lifetime.end.p0i8(i64 1, i8* nonnull %5) #7
  call void @llvm.lifetime.end.p0i8(i64 10000, i8* nonnull %8) #7
  call void @llvm.lifetime.end.p0i8(i64 100, i8* nonnull %7) #7
  ret i32 0
}

; Function Attrs: argmemonly mustprogress nofree nosync nounwind willreturn
declare void @llvm.lifetime.start.p0i8(i64 immarg, i8* nocapture) #4

; Function Attrs: nofree nounwind
declare noundef i32 @__isoc99_scanf(i8* nocapture noundef readonly, ...) local_unnamed_addr #5

; Function Attrs: argmemonly mustprogress nofree nosync nounwind willreturn
declare void @llvm.lifetime.end.p0i8(i64 immarg, i8* nocapture) #4

declare nonnull align 8 dereferenceable(8) %"class.std::basic_ostream"* @_ZSt16__ostream_insertIcSt11char_traitsIcEERSt13basic_ostreamIT_T0_ES6_PKS3_l(%"class.std::basic_ostream"* nonnull align 8 dereferenceable(8), i8*, i64) local_unnamed_addr #0

; Function Attrs: sspstrong uwtable
define internal void @_GLOBAL__sub_I_499.cpp() #6 section ".text.startup" {
  tail call void @_ZNSt8ios_base4InitC1Ev(%"class.std::ios_base::Init"* nonnull align 1 dereferenceable(1) @_ZStL8__ioinit)
  %1 = tail call i32 @__cxa_atexit(void (i8*)* bitcast (void (%"class.std::ios_base::Init"*)* @_ZNSt8ios_base4InitD1Ev to void (i8*)*), i8* getelementptr inbounds (%"class.std::ios_base::Init", %"class.std::ios_base::Init"* @_ZStL8__ioinit, i64 0, i32 0), i8* nonnull @__dso_handle) #7
  ret void
}


!llvm.module.flags = !{!0, !1, !2, !3}
!llvm.ident = !{!4}

!0 = !{i32 1, !"wchar_size", i32 4}
!1 = !{i32 7, !"PIC Level", i32 2}
!2 = !{i32 7, !"PIE Level", i32 2}
!3 = !{i32 7, !"uwtable", i32 1}
!4 = !{!"clang version 13.0.0"}
!5 = !{!6, !6, i64 0}
!6 = !{!"omnipotent char", !7, i64 0}
!7 = !{!"Simple C++ TBAA"}
!8 = !{!9, !9, i64 0}
!9 = !{!"int", !6, i64 0}
!10 = distinct !{!10, !11}
!11 = !{!"llvm.loop.mustprogress"}
!12 = distinct !{!12, !11}
!13 = distinct !{!13, !11}
!14 = distinct !{!14, !11}
